target datalayout = "e-m:e-p270:32:32-p271:32:32-p272:64:64-i64:64-i128:128-f80:128-n8:16:32:64-S128"
target triple = "x86_64-pc-linux-gnu"

@.str.7 = private unnamed_addr constant [44 x i8] c"could not open '%s' for reading and writing\00", align 1
@.str.8 = private unnamed_addr constant [32 x i8] c"could not open '%s' for writing\00", align 1
@.str.9 = private unnamed_addr constant [32 x i8] c"could not open '%s' for reading\00", align 1

; Function Attrs: nounwind uwtable
define dso_local ptr @xfopen(ptr noundef %0, ptr noundef %1) #0 {
  %3 = alloca ptr, align 8
  %4 = alloca ptr, align 8
  %5 = alloca ptr, align 8
  %6 = alloca ptr, align 8
  %7 = alloca i32, align 4
  store ptr %0, ptr %4, align 8, !tbaa !4
  store ptr %1, ptr %5, align 8, !tbaa !4
  br label %8

8:                                                ; preds = %51, %2
  call void @llvm.lifetime.start.p0(i64 8, ptr %6) #13
  %9 = load ptr, ptr %4, align 8, !tbaa !4
  %10 = load ptr, ptr %5, align 8, !tbaa !4
  %11 = call ptr @git_fopen(ptr noundef %9, ptr noundef %10)
  store ptr %11, ptr %6, align 8, !tbaa !24
  %12 = load ptr, ptr %6, align 8, !tbaa !24
  %13 = icmp ne ptr %12, null
  br i1 %13, label %14, label %16

14:                                               ; preds = %8
  %15 = load ptr, ptr %6, align 8, !tbaa !24
  store ptr %15, ptr %3, align 8
  store i32 1, ptr %7, align 4
  br label %51

16:                                               ; preds = %8
  %17 = call ptr @__errno_location() #19
  %18 = load i32, ptr %17, align 4, !tbaa !11
  %19 = icmp eq i32 %18, 4
  br i1 %19, label %20, label %21

20:                                               ; preds = %16
  store i32 3, ptr %7, align 4
  br label %51

21:                                               ; preds = %16
  %22 = load ptr, ptr %5, align 8, !tbaa !4
  %23 = load i8, ptr %22, align 1, !tbaa !14
  %24 = sext i8 %23 to i32
  %25 = icmp ne i32 %24, 0
  br i1 %25, label %26, label %35

26:                                               ; preds = %21
  %27 = load ptr, ptr %5, align 8, !tbaa !4
  %28 = getelementptr inbounds i8, ptr %27, i64 1
  %29 = load i8, ptr %28, align 1, !tbaa !14
  %30 = sext i8 %29 to i32
  %31 = icmp eq i32 %30, 43
  br i1 %31, label %32, label %35

32:                                               ; preds = %26
  %33 = call ptr @_(ptr noundef @.str.7)
  %34 = load ptr, ptr %4, align 8, !tbaa !4
  call void (ptr, ...) @die_errno(ptr noundef %33, ptr noundef %34) #14
  unreachable

35:                                               ; preds = %26, %21
  %36 = load ptr, ptr %5, align 8, !tbaa !4
  %37 = load i8, ptr %36, align 1, !tbaa !14
  %38 = sext i8 %37 to i32
  %39 = icmp eq i32 %38, 119
  br i1 %39, label %45, label %40

40:                                               ; preds = %35
  %41 = load ptr, ptr %5, align 8, !tbaa !4
  %42 = load i8, ptr %41, align 1, !tbaa !14
  %43 = sext i8 %42 to i32
  %44 = icmp eq i32 %43, 97
  br i1 %44, label %45, label %48

45:                                               ; preds = %40, %35
  %46 = call ptr @_(ptr noundef @.str.8)
  %47 = load ptr, ptr %4, align 8, !tbaa !4
  call void (ptr, ...) @die_errno(ptr noundef %46, ptr noundef %47) #14
  unreachable

48:                                               ; preds = %40
  %49 = call ptr @_(ptr noundef @.str.9)
  %50 = load ptr, ptr %4, align 8, !tbaa !4
  call void (ptr, ...) @die_errno(ptr noundef %49, ptr noundef %50) #14
  unreachable

51:                                               ; preds = %20, %14
  call void @llvm.lifetime.end.p0(i64 8, ptr %6) #13
  %52 = load i32, ptr %7, align 4
  switch i32 %52, label %55 [
    i32 1, label %53
    i32 3, label %8
  ]

53:                                               ; preds = %51
  %54 = load ptr, ptr %3, align 8
  ret ptr %54

55:                                               ; preds = %51
  unreachable
}