; Function Attrs: nounwind uwtable
define dso_local ptr @xfopen(ptr noundef %0, ptr noundef %1) local_unnamed_addr #0 {
  br label %3

3:                                                ; preds = %5, %2
  %4 = tail call ptr @git_fopen(ptr noundef %0, ptr noundef %1) #20
  %.not = icmp eq ptr %4, null
  br i1 %.not, label %5, label %21

5:                                                ; preds = %3
  %6 = tail call ptr @__errno_location() #26
  %7 = load i32, ptr %6, align 4, !tbaa !9
  %8 = icmp eq i32 %7, 4
  br i1 %8, label %3, label %9

9:                                                ; preds = %5
  %10 = load i8, ptr %1, align 1, !tbaa !8
  %.not15 = icmp eq i8 %10, 0
  br i1 %.not15, label %.thread, label %11

11:                                               ; preds = %9
  %12 = getelementptr inbounds nuw i8, ptr %1, i64 1
  %13 = load i8, ptr %12, align 1, !tbaa !8
  %14 = icmp eq i8 %13, 43
  br i1 %14, label %15, label %17

15:                                               ; preds = %11
  %16 = tail call fastcc ptr @_(ptr noundef nonnull @.str.7)
  tail call void (ptr, ...) @die_errno(ptr noundef %16, ptr noundef %0) #21
  unreachable

17:                                               ; preds = %11
  switch i8 %10, label %.thread [
    i8 119, label %18
    i8 97, label %18
  ]

18:                                               ; preds = %17, %17
  %19 = tail call fastcc ptr @_(ptr noundef nonnull @.str.8)
  tail call void (ptr, ...) @die_errno(ptr noundef %19, ptr noundef %0) #21
  unreachable

.thread:                                          ; preds = %9, %17
  %20 = tail call fastcc ptr @_(ptr noundef nonnull @.str.9)
  tail call void (ptr, ...) @die_errno(ptr noundef %20, ptr noundef %0) #21
  unreachable

21:                                               ; preds = %3
  ret ptr %4
}